target datalayout = "e-m:e-p270:32:32-p271:32:32-p272:64:64-i64:64-i128:128-f80:128-n8:16:32:64-S128"
target triple = "x86_64-pc-linux-gnu"

%struct.stb_vorbis = type { i32, i32, i32, i32, i32, ptr, i32, ptr, ptr, i32, i32, ptr, ptr, ptr, i32, i8, i32, %struct.ProbedPage, %struct.ProbedPage, %struct.stb_vorbis_alloc, i32, i32, i32, i32, [2 x i32], i32, i32, i32, ptr, i32, [64 x i16], ptr, i32, [64 x i16], ptr, i32, ptr, i32, [64 x %struct.Mode], i32, [16 x ptr], [16 x ptr], [16 x ptr], i32, [16 x ptr], i32, i32, [2 x ptr], [2 x ptr], [2 x ptr], [2 x ptr], [2 x ptr], i32, i32, i32, [255 x i8], i8, i8, i8, i32, i32, i32, i32, i32, i32, i32, i32, i32, i32, i32, [4 x %struct.CRCscan], i32, i32 }
%struct.ProbedPage = type { i32, i32, i32 }
%struct.stb_vorbis_alloc = type { ptr, i32 }
%struct.Mode = type { i8, i8, i16, i16 }
%struct.CRCscan = type { i32, i32, i32, i32, i32 }
%union.float_conv = type { float }

; Function Attrs: nounwind uwtable
define void @convert_channels_short_interleaved(i32 noundef %0, ptr noundef %1, i32 noundef %2, ptr noundef %3, i32 noundef %4, i32 noundef %5) #0 {
  %7 = alloca i32, align 4
  %8 = alloca ptr, align 8
  %9 = alloca i32, align 4
  %10 = alloca ptr, align 8
  %11 = alloca i32, align 4
  %12 = alloca i32, align 4
  %13 = alloca i32, align 4
  %14 = alloca i32, align 4
  %15 = alloca i32, align 4
  %16 = alloca %union.float_conv, align 4
  %17 = alloca float, align 4
  %18 = alloca i32, align 4
  store i32 %0, ptr %7, align 4, !tbaa !8
  store ptr %1, ptr %8, align 8, !tbaa !62
  store i32 %2, ptr %9, align 4, !tbaa !8
  store ptr %3, ptr %10, align 8, !tbaa !108
  store i32 %4, ptr %11, align 4, !tbaa !8
  store i32 %5, ptr %12, align 4, !tbaa !8
  call void @llvm.lifetime.start.p0(i64 4, ptr %13) #11
  %19 = load i32, ptr %7, align 4, !tbaa !8
  %20 = load i32, ptr %9, align 4, !tbaa !8
  %21 = icmp ne i32 %19, %20
  br i1 %21, label %22, label %43

22:                                               ; preds = %6
  %23 = load i32, ptr %7, align 4, !tbaa !8
  %24 = icmp sle i32 %23, 2
  br i1 %24, label %25, label %43

25:                                               ; preds = %22
  %26 = load i32, ptr %9, align 4, !tbaa !8
  %27 = icmp sle i32 %26, 6
  br i1 %27, label %28, label %43

28:                                               ; preds = %25
  store i32 0, ptr %13, align 4, !tbaa !8
  br label %29

29:                                               ; preds = %39, %28
  %30 = load i32, ptr %13, align 4, !tbaa !8
  %31 = load i32, ptr %7, align 4, !tbaa !8
  %32 = icmp slt i32 %30, %31
  br i1 %32, label %33, label %42

33:                                               ; preds = %29
  %34 = load ptr, ptr %8, align 8, !tbaa !62
  %35 = load i32, ptr %9, align 4, !tbaa !8
  %36 = load ptr, ptr %10, align 8, !tbaa !108
  %37 = load i32, ptr %11, align 4, !tbaa !8
  %38 = load i32, ptr %12, align 4, !tbaa !8
  call void @compute_stereo_samples(ptr noundef %34, i32 noundef %35, ptr noundef %36, i32 noundef %37, i32 noundef %38)
  br label %39

39:                                               ; preds = %33
  %40 = load i32, ptr %13, align 4, !tbaa !8
  %41 = add nsw i32 %40, 1
  store i32 %41, ptr %13, align 4, !tbaa !8
  br label %29, !llvm.loop !354

42:                                               ; preds = %29
  br label %109

43:                                               ; preds = %25, %22, %6
  call void @llvm.lifetime.start.p0(i64 4, ptr %14) #11
  %44 = load i32, ptr %7, align 4, !tbaa !8
  %45 = load i32, ptr %9, align 4, !tbaa !8
  %46 = icmp slt i32 %44, %45
  br i1 %46, label %47, label %49

47:                                               ; preds = %43
  %48 = load i32, ptr %7, align 4, !tbaa !8
  br label %51

49:                                               ; preds = %43
  %50 = load i32, ptr %9, align 4, !tbaa !8
  br label %51

51:                                               ; preds = %49, %47
  %52 = phi i32 [ %48, %47 ], [ %50, %49 ]
  store i32 %52, ptr %14, align 4, !tbaa !8
  call void @llvm.lifetime.start.p0(i64 4, ptr %15) #11
  store i32 0, ptr %15, align 4, !tbaa !8
  br label %53

53:                                               ; preds = %105, %51
  %54 = load i32, ptr %15, align 4, !tbaa !8
  %55 = load i32, ptr %12, align 4, !tbaa !8
  %56 = icmp slt i32 %54, %55
  br i1 %56, label %57, label %108

57:                                               ; preds = %53
  store i32 0, ptr %13, align 4, !tbaa !8
  br label %58

58:                                               ; preds = %90, %57
  %59 = load i32, ptr %13, align 4, !tbaa !8
  %60 = load i32, ptr %14, align 4, !tbaa !8
  %61 = icmp slt i32 %59, %60
  br i1 %61, label %62, label %93

62:                                               ; preds = %58
  call void @llvm.lifetime.start.p0(i64 4, ptr %16) #11
  call void @llvm.lifetime.start.p0(i64 4, ptr %17) #11
  %63 = load ptr, ptr %10, align 8, !tbaa !108
  %64 = load i32, ptr %13, align 4, !tbaa !8
  %65 = sext i32 %64 to i64
  %66 = getelementptr inbounds ptr, ptr %63, i64 %65
  %67 = load ptr, ptr %66, align 8, !tbaa !58
  %68 = load i32, ptr %11, align 4, !tbaa !8
  %69 = load i32, ptr %15, align 4, !tbaa !8
  %70 = add nsw i32 %68, %69
  %71 = sext i32 %70 to i64
  %72 = getelementptr inbounds float, ptr %67, i64 %71
  %73 = load float, ptr %72, align 4, !tbaa !28
  store float %73, ptr %17, align 4, !tbaa !28
  call void @llvm.lifetime.start.p0(i64 4, ptr %18) #11
  %74 = load float, ptr %17, align 4, !tbaa !28
  %75 = fadd float %74, 3.840000e+02
  store float %75, ptr %16, align 4, !tbaa !30
  %76 = load i32, ptr %16, align 4, !tbaa !30
  %77 = sub nsw i32 %76, 1136656384
  store i32 %77, ptr %18, align 4, !tbaa !8
  %78 = load i32, ptr %18, align 4, !tbaa !8
  %79 = add nsw i32 %78, 32768
  %80 = icmp ugt i32 %79, 65535
  br i1 %80, label %81, label %85

81:                                               ; preds = %62
  %82 = load i32, ptr %18, align 4, !tbaa !8
  %83 = icmp slt i32 %82, 0
  %84 = select i1 %83, i32 -32768, i32 32767
  store i32 %84, ptr %18, align 4, !tbaa !8
  br label %85

85:                                               ; preds = %81, %62
  %86 = load i32, ptr %18, align 4, !tbaa !8
  %87 = trunc i32 %86 to i16
  %88 = load ptr, ptr %8, align 8, !tbaa !62
  %89 = getelementptr inbounds nuw i16, ptr %88, i32 1
  store ptr %89, ptr %8, align 8, !tbaa !62
  store i16 %87, ptr %88, align 2, !tbaa !45
  call void @llvm.lifetime.end.p0(i64 4, ptr %18) #11
  call void @llvm.lifetime.end.p0(i64 4, ptr %17) #11
  call void @llvm.lifetime.end.p0(i64 4, ptr %16) #11
  br label %90

90:                                               ; preds = %85
  %91 = load i32, ptr %13, align 4, !tbaa !8
  %92 = add nsw i32 %91, 1
  store i32 %92, ptr %13, align 4, !tbaa !8
  br label %58, !llvm.loop !355

93:                                               ; preds = %58
  br label %94

94:                                               ; preds = %101, %93
  %95 = load i32, ptr %13, align 4, !tbaa !8
  %96 = load i32, ptr %7, align 4, !tbaa !8
  %97 = icmp slt i32 %95, %96
  br i1 %97, label %98, label %104

98:                                               ; preds = %94
  %99 = load ptr, ptr %8, align 8, !tbaa !62
  %100 = getelementptr inbounds nuw i16, ptr %99, i32 1
  store ptr %100, ptr %8, align 8, !tbaa !62
  store i16 0, ptr %99, align 2, !tbaa !45
  br label %101

101:                                              ; preds = %98
  %102 = load i32, ptr %13, align 4, !tbaa !8
  %103 = add nsw i32 %102, 1
  store i32 %103, ptr %13, align 4, !tbaa !8
  br label %94, !llvm.loop !356

104:                                              ; preds = %94
  br label %105

105:                                              ; preds = %104
  %106 = load i32, ptr %15, align 4, !tbaa !8
  %107 = add nsw i32 %106, 1
  store i32 %107, ptr %15, align 4, !tbaa !8
  br label %53, !llvm.loop !357

108:                                              ; preds = %53
  call void @llvm.lifetime.end.p0(i64 4, ptr %15) #11
  call void @llvm.lifetime.end.p0(i64 4, ptr %14) #11
  br label %109

109:                                              ; preds = %108, %42
  call void @llvm.lifetime.end.p0(i64 4, ptr %13) #11
  ret void
}

; Function Attrs: nounwind uwtable
define i32 @stb_vorbis_get_frame_short(ptr noundef %0, i32 noundef %1, ptr noundef %2, i32 noundef %3) #0 {
  %5 = alloca ptr, align 8
  %6 = alloca i32, align 4
  %7 = alloca ptr, align 8
  %8 = alloca i32, align 4
  %9 = alloca ptr, align 8
  %10 = alloca i32, align 4
  store ptr %0, ptr %5, align 8, !tbaa !3
  store i32 %1, ptr %6, align 4, !tbaa !8
  store ptr %2, ptr %7, align 8, !tbaa !349
  store i32 %3, ptr %8, align 4, !tbaa !8
  call void @llvm.lifetime.start.p0(i64 8, ptr %9) #11
  store ptr null, ptr %9, align 8, !tbaa !108
  call void @llvm.lifetime.start.p0(i64 4, ptr %10) #11
  %11 = load ptr, ptr %5, align 8, !tbaa !3
  %12 = call i32 @stb_vorbis_get_frame_float(ptr noundef %11, ptr noundef null, ptr noundef %9)
  store i32 %12, ptr %10, align 4, !tbaa !8
  %13 = load i32, ptr %10, align 4, !tbaa !8
  %14 = load i32, ptr %8, align 4, !tbaa !8
  %15 = icmp sgt i32 %13, %14
  br i1 %15, label %16, label %18

16:                                               ; preds = %4
  %17 = load i32, ptr %8, align 4, !tbaa !8
  store i32 %17, ptr %10, align 4, !tbaa !8
  br label %18

18:                                               ; preds = %16, %4
  %19 = load i32, ptr %10, align 4, !tbaa !8
  %20 = icmp ne i32 %19, 0
  br i1 %20, label %21, label %29

21:                                               ; preds = %18
  %22 = load i32, ptr %6, align 4, !tbaa !8
  %23 = load ptr, ptr %7, align 8, !tbaa !349
  %24 = load ptr, ptr %5, align 8, !tbaa !3
  %25 = getelementptr inbounds nuw %struct.stb_vorbis, ptr %24, i32 0, i32 1
  %26 = load i32, ptr %25, align 4, !tbaa !122
  %27 = load ptr, ptr %9, align 8, !tbaa !108
  %28 = load i32, ptr %10, align 4, !tbaa !8
  call void @convert_samples_short(i32 noundef %22, ptr noundef %23, i32 noundef 0, i32 noundef %26, ptr noundef %27, i32 noundef 0, i32 noundef %28)
  br label %29

29:                                               ; preds = %21, %18
  %30 = load i32, ptr %10, align 4, !tbaa !8
  call void @llvm.lifetime.end.p0(i64 4, ptr %10) #11
  call void @llvm.lifetime.end.p0(i64 8, ptr %9) #11
  ret i32 %30
}

; Function Attrs: nounwind uwtable
define i32 @stb_vorbis_get_frame_short_interleaved(ptr noundef %0, i32 noundef %1, ptr noundef %2, i32 noundef %3) #0 {
  %5 = alloca i32, align 4
  %6 = alloca ptr, align 8
  %7 = alloca i32, align 4
  %8 = alloca ptr, align 8
  %9 = alloca i32, align 4
  %10 = alloca ptr, align 8
  %11 = alloca i32, align 4
  %12 = alloca i32, align 4
  store ptr %0, ptr %6, align 8, !tbaa !3
  store i32 %1, ptr %7, align 4, !tbaa !8
  store ptr %2, ptr %8, align 8, !tbaa !62
  store i32 %3, ptr %9, align 4, !tbaa !8
  call void @llvm.lifetime.start.p0(i64 8, ptr %10) #11
  call void @llvm.lifetime.start.p0(i64 4, ptr %11) #11
  %13 = load i32, ptr %7, align 4, !tbaa !8
  %14 = icmp eq i32 %13, 1
  br i1 %14, label %15, label %20

15:                                               ; preds = %4
  %16 = load ptr, ptr %6, align 8, !tbaa !3
  %17 = load i32, ptr %7, align 4, !tbaa !8
  %18 = load i32, ptr %9, align 4, !tbaa !8
  %19 = call i32 @stb_vorbis_get_frame_short(ptr noundef %16, i32 noundef %17, ptr noundef %8, i32 noundef %18)
  store i32 %19, ptr %5, align 4
  store i32 1, ptr %12, align 4
  br label %45

20:                                               ; preds = %4
  %21 = load ptr, ptr %6, align 8, !tbaa !3
  %22 = call i32 @stb_vorbis_get_frame_float(ptr noundef %21, ptr noundef null, ptr noundef %10)
  store i32 %22, ptr %11, align 4, !tbaa !8
  %23 = load i32, ptr %11, align 4, !tbaa !8
  %24 = icmp ne i32 %23, 0
  br i1 %24, label %25, label %43

25:                                               ; preds = %20
  %26 = load i32, ptr %11, align 4, !tbaa !8
  %27 = load i32, ptr %7, align 4, !tbaa !8
  %28 = mul nsw i32 %26, %27
  %29 = load i32, ptr %9, align 4, !tbaa !8
  %30 = icmp sgt i32 %28, %29
  br i1 %30, label %31, label %35

31:                                               ; preds = %25
  %32 = load i32, ptr %9, align 4, !tbaa !8
  %33 = load i32, ptr %7, align 4, !tbaa !8
  %34 = sdiv i32 %32, %33
  store i32 %34, ptr %11, align 4, !tbaa !8
  br label %35

35:                                               ; preds = %31, %25
  %36 = load i32, ptr %7, align 4, !tbaa !8
  %37 = load ptr, ptr %8, align 8, !tbaa !62
  %38 = load ptr, ptr %6, align 8, !tbaa !3
  %39 = getelementptr inbounds nuw %struct.stb_vorbis, ptr %38, i32 0, i32 1
  %40 = load i32, ptr %39, align 4, !tbaa !122
  %41 = load ptr, ptr %10, align 8, !tbaa !108
  %42 = load i32, ptr %11, align 4, !tbaa !8
  call void @convert_channels_short_interleaved(i32 noundef %36, ptr noundef %37, i32 noundef %40, ptr noundef %41, i32 noundef 0, i32 noundef %42)
  br label %43

43:                                               ; preds = %35, %20
  %44 = load i32, ptr %11, align 4, !tbaa !8
  store i32 %44, ptr %5, align 4
  store i32 1, ptr %12, align 4
  br label %45

45:                                               ; preds = %43, %15
  call void @llvm.lifetime.end.p0(i64 4, ptr %11) #11
  call void @llvm.lifetime.end.p0(i64 8, ptr %10) #11
  %46 = load i32, ptr %5, align 4
  ret i32 %46
}