; Function Attrs: nofree nounwind uwtable
define i32 @stb_vorbis_get_frame_short_interleaved(ptr noundef %0, i32 noundef %1, ptr noundef %2, i32 noundef %3) local_unnamed_addr #17 {
  %5 = alloca ptr, align 8
  %6 = alloca ptr, align 8
  %7 = alloca ptr, align 8
  store ptr %2, ptr %6, align 8, !tbaa !54
  call void @llvm.lifetime.start.p0(i64 8, ptr nonnull %7) #35
  %8 = icmp eq i32 %1, 1
  br i1 %8, label %9, label %15

9:                                                ; preds = %4
  call void @llvm.lifetime.start.p0(i64 8, ptr nonnull %5) #35
  store ptr null, ptr %5, align 8, !tbaa !298
  %10 = call i32 @stb_vorbis_get_frame_float(ptr noundef %0, ptr noundef null, ptr noundef nonnull %5)
  %spec.select.i = call i32 @llvm.smin.i32(i32 %10, i32 %3)
  %.not.i = icmp eq i32 %spec.select.i, 0
  br i1 %.not.i, label %stb_vorbis_get_frame_short.exit, label %11

11:                                               ; preds = %9
  %12 = getelementptr inbounds nuw i8, ptr %0, i64 4
  %13 = load i32, ptr %12, align 4, !tbaa !110
  %14 = load ptr, ptr %5, align 8, !tbaa !298
  call void @convert_samples_short(i32 noundef 1, ptr noundef nonnull readonly %6, i32 noundef 0, i32 noundef %13, ptr noundef %14, i32 noundef 0, i32 noundef %spec.select.i)
  br label %stb_vorbis_get_frame_short.exit

stb_vorbis_get_frame_short.exit:                  ; preds = %9, %11
  call void @llvm.lifetime.end.p0(i64 8, ptr nonnull %5) #35
  br label %convert_channels_short_interleaved.exit

15:                                               ; preds = %4
  %16 = call i32 @stb_vorbis_get_frame_float(ptr noundef %0, ptr noundef null, ptr noundef nonnull %7)
  %.not = icmp eq i32 %16, 0
  br i1 %.not, label %convert_channels_short_interleaved.exit, label %17

17:                                               ; preds = %15
  %18 = mul nsw i32 %16, %1
  %19 = icmp sgt i32 %18, %3
  br i1 %19, label %20, label %22

20:                                               ; preds = %17
  %21 = sdiv i32 %3, %1
  br label %22

22:                                               ; preds = %20, %17
  %.1 = phi i32 [ %21, %20 ], [ %16, %17 ]
  %23 = getelementptr inbounds nuw i8, ptr %0, i64 4
  %24 = load i32, ptr %23, align 4, !tbaa !110
  %25 = load ptr, ptr %7, align 8, !tbaa !298
  %26 = icmp ne i32 %1, %24
  %27 = icmp slt i32 %1, 3
  %or.cond.i = and i1 %27, %26
  %28 = icmp slt i32 %24, 7
  %or.cond3.i = and i1 %28, %or.cond.i
  br i1 %or.cond3.i, label %.preheader.i, label %31

.preheader.i:                                     ; preds = %22
  %29 = icmp sgt i32 %1, 0
  br i1 %29, label %.lr.ph.i, label %convert_channels_short_interleaved.exit

.lr.ph.i:                                         ; preds = %.preheader.i, %.lr.ph.i
  %.03865.i = phi i32 [ %30, %.lr.ph.i ], [ 0, %.preheader.i ]
  call void @compute_stereo_samples(ptr noundef %2, i32 noundef %24, ptr noundef readonly %25, i32 noundef 0, i32 noundef %.1)
  %30 = add nuw nsw i32 %.03865.i, 1
  %exitcond81.not.i = icmp eq i32 %30, %1
  br i1 %exitcond81.not.i, label %convert_channels_short_interleaved.exit, label %.lr.ph.i, !llvm.loop !339

31:                                               ; preds = %22
  %32 = call i32 @llvm.smin.i32(i32 %1, i32 %24)
  %33 = icmp sgt i32 %.1, 0
  br i1 %33, label %.preheader45.lr.ph.i, label %convert_channels_short_interleaved.exit

.preheader45.lr.ph.i:                             ; preds = %31
  %34 = icmp sgt i32 %32, 0
  br i1 %34, label %.preheader45.us.preheader.i, label %.preheader45.lr.ph.split.i

.preheader45.us.preheader.i:                      ; preds = %.preheader45.lr.ph.i
  %35 = add nuw i32 %32, 1
  %smax.i = call i32 @llvm.smax.i32(i32 %1, i32 %35)
  %36 = xor i32 %32, -1
  %37 = add i32 %smax.i, %36
  %38 = zext i32 %37 to i64
  %39 = shl nuw nsw i64 %38, 1
  %40 = add nuw nsw i64 %39, 2
  %41 = add nsw i32 %32, -1
  %42 = zext nneg i32 %41 to i64
  %43 = add nuw nsw i64 %38, %42
  %44 = shl nuw nsw i64 %43, 1
  %wide.trip.count79.i = zext nneg i32 %.1 to i64
  %wide.trip.count.i = zext nneg i32 %32 to i64
  %45 = icmp slt i32 %24, %1
  br i1 %45, label %.preheader45.us.i.us, label %.preheader45.us.i

.preheader45.us.i.us:                             ; preds = %.preheader45.us.preheader.i, %..preheader44_crit_edge.us.i.us
  %indvars.iv76.i.us = phi i64 [ %indvars.iv.next77.i.us, %..preheader44_crit_edge.us.i.us ], [ 0, %.preheader45.us.preheader.i ]
  %.03755.us.i.us = phi ptr [ %scevgep75.i.us, %..preheader44_crit_edge.us.i.us ], [ %2, %.preheader45.us.preheader.i ]
  br label %46

46:                                               ; preds = %46, %.preheader45.us.i.us
  %indvars.iv.i.us = phi i64 [ 0, %.preheader45.us.i.us ], [ %indvars.iv.next.i.us, %46 ]
  %.148.us.i.us = phi ptr [ %.03755.us.i.us, %.preheader45.us.i.us ], [ %56, %46 ]
  %47 = getelementptr inbounds nuw ptr, ptr %25, i64 %indvars.iv.i.us
  %48 = load ptr, ptr %47, align 8, !tbaa !53
  %49 = getelementptr float, ptr %48, i64 %indvars.iv76.i.us
  %50 = load float, ptr %49, align 4, !tbaa !48
  %51 = fadd float %50, 3.840000e+02
  %52 = bitcast float %51 to i32
  %53 = call i32 @llvm.smax.i32(i32 %52, i32 1136623616)
  %54 = call i32 @llvm.umin.i32(i32 %53, i32 1136689151)
  %55 = trunc i32 %54 to i16
  %56 = getelementptr i8, ptr %.148.us.i.us, i64 2
  store i16 %55, ptr %.148.us.i.us, align 2, !tbaa !36
  %indvars.iv.next.i.us = add nuw nsw i64 %indvars.iv.i.us, 1
  %exitcond73.not.i.us = icmp eq i64 %indvars.iv.next.i.us, %wide.trip.count.i
  br i1 %exitcond73.not.i.us, label %..preheader44_crit_edge.us.i.us, label %46, !llvm.loop !341

..preheader44_crit_edge.us.i.us:                  ; preds = %46
  call void @llvm.memset.p0.i64(ptr noundef nonnull align 2 dereferenceable(1) %56, i8 0, i64 %40, i1 false), !tbaa !36
  %57 = getelementptr i8, ptr %.03755.us.i.us, i64 %44
  %scevgep75.i.us = getelementptr i8, ptr %57, i64 4
  %indvars.iv.next77.i.us = add nuw nsw i64 %indvars.iv76.i.us, 1
  %exitcond80.not.i.us = icmp eq i64 %indvars.iv.next77.i.us, %wide.trip.count79.i
  br i1 %exitcond80.not.i.us, label %convert_channels_short_interleaved.exit, label %.preheader45.us.i.us, !llvm.loop !340

.preheader45.us.i:                                ; preds = %.preheader45.us.preheader.i, %..preheader44_crit_edge.us.i
  %indvars.iv76.i = phi i64 [ %indvars.iv.next77.i, %..preheader44_crit_edge.us.i ], [ 0, %.preheader45.us.preheader.i ]
  %.03755.us.i = phi ptr [ %68, %..preheader44_crit_edge.us.i ], [ %2, %.preheader45.us.preheader.i ]
  br label %58

58:                                               ; preds = %58, %.preheader45.us.i
  %indvars.iv.i = phi i64 [ 0, %.preheader45.us.i ], [ %indvars.iv.next.i, %58 ]
  %.148.us.i = phi ptr [ %.03755.us.i, %.preheader45.us.i ], [ %68, %58 ]
  %59 = getelementptr inbounds nuw ptr, ptr %25, i64 %indvars.iv.i
  %60 = load ptr, ptr %59, align 8, !tbaa !53
  %61 = getelementptr float, ptr %60, i64 %indvars.iv76.i
  %62 = load float, ptr %61, align 4, !tbaa !48
  %63 = fadd float %62, 3.840000e+02
  %64 = bitcast float %63 to i32
  %65 = call i32 @llvm.smax.i32(i32 %64, i32 1136623616)
  %66 = call i32 @llvm.umin.i32(i32 %65, i32 1136689151)
  %67 = trunc i32 %66 to i16
  %68 = getelementptr i8, ptr %.148.us.i, i64 2
  store i16 %67, ptr %.148.us.i, align 2, !tbaa !36
  %indvars.iv.next.i = add nuw nsw i64 %indvars.iv.i, 1
  %exitcond73.not.i = icmp eq i64 %indvars.iv.next.i, %wide.trip.count.i
  br i1 %exitcond73.not.i, label %..preheader44_crit_edge.us.i, label %58, !llvm.loop !341

..preheader44_crit_edge.us.i:                     ; preds = %58
  %indvars.iv.next77.i = add nuw nsw i64 %indvars.iv76.i, 1
  %exitcond80.not.i = icmp eq i64 %indvars.iv.next77.i, %wide.trip.count79.i
  br i1 %exitcond80.not.i, label %convert_channels_short_interleaved.exit, label %.preheader45.us.i, !llvm.loop !340

.preheader45.lr.ph.split.i:                       ; preds = %.preheader45.lr.ph.i
  %69 = icmp sgt i32 %1, 0
  br i1 %69, label %.preheader45.us56.preheader.i, label %convert_channels_short_interleaved.exit

.preheader45.us56.preheader.i:                    ; preds = %.preheader45.lr.ph.split.i
  %70 = shl nuw i32 %1, 1
  %71 = zext i32 %70 to i64
  %72 = add nsw i32 %1, -1
  %73 = zext nneg i32 %72 to i64
  %74 = shl nuw nsw i64 %73, 1
  br label %.preheader45.us56.i

.preheader45.us56.i:                              ; preds = %.preheader45.us56.i, %.preheader45.us56.preheader.i
  %.03755.us57.i = phi ptr [ %scevgep.i, %.preheader45.us56.i ], [ %2, %.preheader45.us56.preheader.i ]
  %.04154.us58.i = phi i32 [ %76, %.preheader45.us56.i ], [ 0, %.preheader45.us56.preheader.i ]
  call void @llvm.memset.p0.i64(ptr align 2 %.03755.us57.i, i8 0, i64 %71, i1 false), !tbaa !36
  %75 = getelementptr i8, ptr %.03755.us57.i, i64 %74
  %scevgep.i = getelementptr i8, ptr %75, i64 2
  %76 = add nuw nsw i32 %.04154.us58.i, 1
  %exitcond.not.i = icmp eq i32 %76, %.1
  br i1 %exitcond.not.i, label %convert_channels_short_interleaved.exit, label %.preheader45.us56.i, !llvm.loop !340

convert_channels_short_interleaved.exit:          ; preds = %.preheader45.us56.i, %..preheader44_crit_edge.us.i, %..preheader44_crit_edge.us.i.us, %.lr.ph.i, %.preheader45.lr.ph.split.i, %31, %.preheader.i, %15, %stb_vorbis_get_frame_short.exit
  %.015 = phi i32 [ %spec.select.i, %stb_vorbis_get_frame_short.exit ], [ 0, %15 ], [ %.1, %.preheader.i ], [ %.1, %31 ], [ %.1, %.preheader45.lr.ph.split.i ], [ %.1, %.lr.ph.i ], [ %.1, %..preheader44_crit_edge.us.i.us ], [ %.1, %..preheader44_crit_edge.us.i ], [ %.1, %.preheader45.us56.i ]
  call void @llvm.lifetime.end.p0(i64 8, ptr nonnull %7) #35
  ret i32 %.015
}